target datalayout = "e-m:e-p270:32:32-p271:32:32-p272:64:64-i64:64-i128:128-f80:128-n8:16:32:64-S128"
target triple = "x86_64-pc-linux-gnu"

%"class.clang::SourceLocation" = type { i32 }
%"class.clang::SourceRange" = type { %"class.clang::SourceLocation", %"class.clang::SourceLocation" }
%"class.clang::OpenACCClause" = type <{ ptr, i32, %"class.clang::SourceRange", [4 x i8] }>

; Function Attrs: mustprogress nounwind uwtable
define linkonce_odr hidden noundef zeroext i1 @_ZN5clang19OpenACCCreateClause7classofEPKNS_13OpenACCClauseE(ptr noundef %0) #0 comdat align 2 {
  %2 = alloca ptr, align 8
  store ptr %0, ptr %2, align 8
  %3 = load ptr, ptr %2, align 8
  %4 = call noundef i32 @_ZNK5clang13OpenACCClause13getClauseKindEv(ptr noundef nonnull align 8 dereferenceable(20) %3)
  %5 = icmp eq i32 %4, 33
  br i1 %5, label %14, label %6

6:                                                ; preds = %1
  %7 = load ptr, ptr %2, align 8
  %8 = call noundef i32 @_ZNK5clang13OpenACCClause13getClauseKindEv(ptr noundef nonnull align 8 dereferenceable(20) %7)
  %9 = icmp eq i32 %8, 34
  br i1 %9, label %14, label %10

10:                                               ; preds = %6
  %11 = load ptr, ptr %2, align 8
  %12 = call noundef i32 @_ZNK5clang13OpenACCClause13getClauseKindEv(ptr noundef nonnull align 8 dereferenceable(20) %11)
  %13 = icmp eq i32 %12, 35
  br label %14

14:                                               ; preds = %10, %6, %1
  %15 = phi i1 [ true, %6 ], [ true, %1 ], [ %13, %10 ]
  ret i1 %15
}

; Function Attrs: mustprogress nounwind uwtable
define linkonce_odr hidden noundef zeroext i1 @_ZN5clang22OpenACCReductionClause7classofEPKNS_13OpenACCClauseE(ptr noundef %0) #0 comdat align 2 {
  %2 = alloca ptr, align 8
  store ptr %0, ptr %2, align 8
  %3 = load ptr, ptr %2, align 8
  %4 = call noundef i32 @_ZNK5clang13OpenACCClause13getClauseKindEv(ptr noundef nonnull align 8 dereferenceable(20) %3)
  %5 = icmp eq i32 %4, 36
  ret i1 %5
}

; Function Attrs: mustprogress nounwind uwtable
define linkonce_odr hidden noundef zeroext i1 @_ZN5clang20OpenACCCopyOutClause7classofEPKNS_13OpenACCClauseE(ptr noundef %0) #0 comdat align 2 {
  %2 = alloca ptr, align 8
  store ptr %0, ptr %2, align 8
  %3 = load ptr, ptr %2, align 8
  %4 = call noundef i32 @_ZNK5clang13OpenACCClause13getClauseKindEv(ptr noundef nonnull align 8 dereferenceable(20) %3)
  %5 = icmp eq i32 %4, 27
  br i1 %5, label %14, label %6

6:                                                ; preds = %1
  %7 = load ptr, ptr %2, align 8
  %8 = call noundef i32 @_ZNK5clang13OpenACCClause13getClauseKindEv(ptr noundef nonnull align 8 dereferenceable(20) %7)
  %9 = icmp eq i32 %8, 28
  br i1 %9, label %14, label %10

10:                                               ; preds = %6
  %11 = load ptr, ptr %2, align 8
  %12 = call noundef i32 @_ZNK5clang13OpenACCClause13getClauseKindEv(ptr noundef nonnull align 8 dereferenceable(20) %11)
  %13 = icmp eq i32 %12, 29
  br label %14

14:                                               ; preds = %10, %6, %1
  %15 = phi i1 [ true, %6 ], [ true, %1 ], [ %13, %10 ]
  ret i1 %15
}

; Function Attrs: mustprogress nounwind uwtable
define linkonce_odr hidden noundef zeroext i1 @_ZN5clang19OpenACCCopyInClause7classofEPKNS_13OpenACCClauseE(ptr noundef %0) #0 comdat align 2 {
  %2 = alloca ptr, align 8
  store ptr %0, ptr %2, align 8
  %3 = load ptr, ptr %2, align 8
  %4 = call noundef i32 @_ZNK5clang13OpenACCClause13getClauseKindEv(ptr noundef nonnull align 8 dereferenceable(20) %3)
  %5 = icmp eq i32 %4, 30
  br i1 %5, label %14, label %6

6:                                                ; preds = %1
  %7 = load ptr, ptr %2, align 8
  %8 = call noundef i32 @_ZNK5clang13OpenACCClause13getClauseKindEv(ptr noundef nonnull align 8 dereferenceable(20) %7)
  %9 = icmp eq i32 %8, 31
  br i1 %9, label %14, label %10

10:                                               ; preds = %6
  %11 = load ptr, ptr %2, align 8
  %12 = call noundef i32 @_ZNK5clang13OpenACCClause13getClauseKindEv(ptr noundef nonnull align 8 dereferenceable(20) %11)
  %13 = icmp eq i32 %12, 32
  br label %14

14:                                               ; preds = %10, %6, %1
  %15 = phi i1 [ true, %6 ], [ true, %1 ], [ %13, %10 ]
  ret i1 %15
}

; Function Attrs: mustprogress nounwind uwtable
define linkonce_odr hidden noundef zeroext i1 @_ZN5clang17OpenACCCopyClause7classofEPKNS_13OpenACCClauseE(ptr noundef %0) #0 comdat align 2 {
  %2 = alloca ptr, align 8
  store ptr %0, ptr %2, align 8
  %3 = load ptr, ptr %2, align 8
  %4 = call noundef i32 @_ZNK5clang13OpenACCClause13getClauseKindEv(ptr noundef nonnull align 8 dereferenceable(20) %3)
  %5 = icmp eq i32 %4, 11
  br i1 %5, label %14, label %6

6:                                                ; preds = %1
  %7 = load ptr, ptr %2, align 8
  %8 = call noundef i32 @_ZNK5clang13OpenACCClause13getClauseKindEv(ptr noundef nonnull align 8 dereferenceable(20) %7)
  %9 = icmp eq i32 %8, 12
  br i1 %9, label %14, label %10

10:                                               ; preds = %6
  %11 = load ptr, ptr %2, align 8
  %12 = call noundef i32 @_ZNK5clang13OpenACCClause13getClauseKindEv(ptr noundef nonnull align 8 dereferenceable(20) %11)
  %13 = icmp eq i32 %12, 13
  br label %14

14:                                               ; preds = %10, %6, %1
  %15 = phi i1 [ true, %6 ], [ true, %1 ], [ %13, %10 ]
  ret i1 %15
}

; Function Attrs: mustprogress nounwind uwtable
define linkonce_odr hidden noundef zeroext i1 @_ZN5clang20OpenACCPresentClause7classofEPKNS_13OpenACCClauseE(ptr noundef %0) #0 comdat align 2 {
  %2 = alloca ptr, align 8
  store ptr %0, ptr %2, align 8
  %3 = load ptr, ptr %2, align 8
  %4 = call noundef i32 @_ZNK5clang13OpenACCClause13getClauseKindEv(ptr noundef nonnull align 8 dereferenceable(20) %3)
  %5 = icmp eq i32 %4, 25
  ret i1 %5
}

; Function Attrs: mustprogress nounwind uwtable
define linkonce_odr hidden noundef zeroext i1 @_ZN5clang21OpenACCNoCreateClause7classofEPKNS_13OpenACCClauseE(ptr noundef %0) #0 comdat align 2 {
  %2 = alloca ptr, align 8
  store ptr %0, ptr %2, align 8
  %3 = load ptr, ptr %2, align 8
  %4 = call noundef i32 @_ZNK5clang13OpenACCClause13getClauseKindEv(ptr noundef nonnull align 8 dereferenceable(20) %3)
  %5 = icmp eq i32 %4, 24
  ret i1 %5
}

; Function Attrs: mustprogress nounwind uwtable
define linkonce_odr hidden noundef zeroext i1 @_ZN5clang19OpenACCAttachClause7classofEPKNS_13OpenACCClauseE(ptr noundef %0) #0 comdat align 2 {
  %2 = alloca ptr, align 8
  store ptr %0, ptr %2, align 8
  %3 = load ptr, ptr %2, align 8
  %4 = call noundef i32 @_ZNK5clang13OpenACCClause13getClauseKindEv(ptr noundef nonnull align 8 dereferenceable(20) %3)
  %5 = icmp eq i32 %4, 15
  ret i1 %5
}

; Function Attrs: mustprogress nounwind uwtable
define linkonce_odr hidden noundef zeroext i1 @_ZN5clang22OpenACCDevicePtrClause7classofEPKNS_13OpenACCClauseE(ptr noundef %0) #0 comdat align 2 {
  %2 = alloca ptr, align 8
  store ptr %0, ptr %2, align 8
  %3 = load ptr, ptr %2, align 8
  %4 = call noundef i32 @_ZNK5clang13OpenACCClause13getClauseKindEv(ptr noundef nonnull align 8 dereferenceable(20) %3)
  %5 = icmp eq i32 %4, 19
  ret i1 %5
}

; Function Attrs: mustprogress nounwind uwtable
define linkonce_odr hidden noundef zeroext i1 @_ZN5clang25OpenACCFirstPrivateClause7classofEPKNS_13OpenACCClauseE(ptr noundef %0) #0 comdat align 2 {
  %2 = alloca ptr, align 8
  store ptr %0, ptr %2, align 8
  %3 = load ptr, ptr %2, align 8
  %4 = call noundef i32 @_ZNK5clang13OpenACCClause13getClauseKindEv(ptr noundef nonnull align 8 dereferenceable(20) %3)
  %5 = icmp eq i32 %4, 21
  ret i1 %5
}

; Function Attrs: mustprogress nounwind uwtable
define linkonce_odr hidden noundef zeroext i1 @_ZN5clang20OpenACCPrivateClause7classofEPKNS_13OpenACCClauseE(ptr noundef %0) #0 comdat align 2 {
  %2 = alloca ptr, align 8
  store ptr %0, ptr %2, align 8
  %3 = load ptr, ptr %2, align 8
  %4 = call noundef i32 @_ZNK5clang13OpenACCClause13getClauseKindEv(ptr noundef nonnull align 8 dereferenceable(20) %3)
  %5 = icmp eq i32 %4, 26
  ret i1 %5
}

; Function Attrs: mustprogress nounwind uwtable
define linkonce_odr hidden noundef zeroext i1 @_ZN5clang18OpenACCAsyncClause7classofEPKNS_13OpenACCClauseE(ptr noundef %0) #0 comdat align 2 {
  %2 = alloca ptr, align 8
  store ptr %0, ptr %2, align 8
  %3 = load ptr, ptr %2, align 8
  %4 = call noundef i32 @_ZNK5clang13OpenACCClause13getClauseKindEv(ptr noundef nonnull align 8 dereferenceable(20) %3)
  %5 = icmp eq i32 %4, 46
  ret i1 %5
}

; Function Attrs: mustprogress nounwind uwtable
define linkonce_odr hidden noundef zeroext i1 @_ZN5clang25OpenACCVectorLengthClause7classofEPKNS_13OpenACCClauseE(ptr noundef %0) #0 comdat align 2 {
  %2 = alloca ptr, align 8
  store ptr %0, ptr %2, align 8
  %3 = load ptr, ptr %2, align 8
  %4 = call noundef i32 @_ZNK5clang13OpenACCClause13getClauseKindEv(ptr noundef nonnull align 8 dereferenceable(20) %3)
  %5 = icmp eq i32 %4, 39
  ret i1 %5
}

; Function Attrs: mustprogress nounwind uwtable
define linkonce_odr hidden noundef zeroext i1 @_ZN5clang23OpenACCNumWorkersClause7classofEPKNS_13OpenACCClauseE(ptr noundef %0) #0 comdat align 2 {
  %2 = alloca ptr, align 8
  store ptr %0, ptr %2, align 8
  %3 = load ptr, ptr %2, align 8
  %4 = call noundef i32 @_ZNK5clang13OpenACCClause13getClauseKindEv(ptr noundef nonnull align 8 dereferenceable(20) %3)
  %5 = icmp eq i32 %4, 41
  ret i1 %5
}

; Function Attrs: mustprogress nounwind uwtable
define dso_local noundef zeroext i1 @_ZN5clang24OpenACCClauseWithVarList7classofEPKNS_13OpenACCClauseE(ptr noundef %0) #0 align 2 {
  %2 = alloca ptr, align 8
  store ptr %0, ptr %2, align 8
  %3 = load ptr, ptr %2, align 8
  %4 = call noundef zeroext i1 @_ZN5clang20OpenACCPrivateClause7classofEPKNS_13OpenACCClauseE(ptr noundef %3)
  br i1 %4, label %38, label %5

5:                                                ; preds = %1
  %6 = load ptr, ptr %2, align 8
  %7 = call noundef zeroext i1 @_ZN5clang25OpenACCFirstPrivateClause7classofEPKNS_13OpenACCClauseE(ptr noundef %6)
  br i1 %7, label %38, label %8

8:                                                ; preds = %5
  %9 = load ptr, ptr %2, align 8
  %10 = call noundef zeroext i1 @_ZN5clang22OpenACCDevicePtrClause7classofEPKNS_13OpenACCClauseE(ptr noundef %9)
  br i1 %10, label %38, label %11

11:                                               ; preds = %8
  %12 = load ptr, ptr %2, align 8
  %13 = call noundef zeroext i1 @_ZN5clang22OpenACCDevicePtrClause7classofEPKNS_13OpenACCClauseE(ptr noundef %12)
  br i1 %13, label %38, label %14

14:                                               ; preds = %11
  %15 = load ptr, ptr %2, align 8
  %16 = call noundef zeroext i1 @_ZN5clang19OpenACCAttachClause7classofEPKNS_13OpenACCClauseE(ptr noundef %15)
  br i1 %16, label %38, label %17

17:                                               ; preds = %14
  %18 = load ptr, ptr %2, align 8
  %19 = call noundef zeroext i1 @_ZN5clang21OpenACCNoCreateClause7classofEPKNS_13OpenACCClauseE(ptr noundef %18)
  br i1 %19, label %38, label %20

20:                                               ; preds = %17
  %21 = load ptr, ptr %2, align 8
  %22 = call noundef zeroext i1 @_ZN5clang20OpenACCPresentClause7classofEPKNS_13OpenACCClauseE(ptr noundef %21)
  br i1 %22, label %38, label %23

23:                                               ; preds = %20
  %24 = load ptr, ptr %2, align 8
  %25 = call noundef zeroext i1 @_ZN5clang17OpenACCCopyClause7classofEPKNS_13OpenACCClauseE(ptr noundef %24)
  br i1 %25, label %38, label %26

26:                                               ; preds = %23
  %27 = load ptr, ptr %2, align 8
  %28 = call noundef zeroext i1 @_ZN5clang19OpenACCCopyInClause7classofEPKNS_13OpenACCClauseE(ptr noundef %27)
  br i1 %28, label %38, label %29

29:                                               ; preds = %26
  %30 = load ptr, ptr %2, align 8
  %31 = call noundef zeroext i1 @_ZN5clang20OpenACCCopyOutClause7classofEPKNS_13OpenACCClauseE(ptr noundef %30)
  br i1 %31, label %38, label %32

32:                                               ; preds = %29
  %33 = load ptr, ptr %2, align 8
  %34 = call noundef zeroext i1 @_ZN5clang22OpenACCReductionClause7classofEPKNS_13OpenACCClauseE(ptr noundef %33)
  br i1 %34, label %38, label %35

35:                                               ; preds = %32
  %36 = load ptr, ptr %2, align 8
  %37 = call noundef zeroext i1 @_ZN5clang19OpenACCCreateClause7classofEPKNS_13OpenACCClauseE(ptr noundef %36)
  br label %38

38:                                               ; preds = %35, %32, %29, %26, %23, %20, %17, %14, %11, %8, %5, %1
  %39 = phi i1 [ true, %32 ], [ true, %29 ], [ true, %26 ], [ true, %23 ], [ true, %20 ], [ true, %17 ], [ true, %14 ], [ true, %11 ], [ true, %8 ], [ true, %5 ], [ true, %1 ], [ %37, %35 ]
  ret i1 %39
}

; Function Attrs: mustprogress nounwind uwtable
define dso_local noundef zeroext i1 @_ZN5clang30OpenACCClauseWithSingleIntExpr7classofEPKNS_13OpenACCClauseE(ptr noundef %0) #0 align 2 {
  %2 = alloca ptr, align 8
  store ptr %0, ptr %2, align 8
  %3 = load ptr, ptr %2, align 8
  %4 = call noundef zeroext i1 @_ZN5clang23OpenACCNumWorkersClause7classofEPKNS_13OpenACCClauseE(ptr noundef %3)
  br i1 %4, label %11, label %5

5:                                                ; preds = %1
  %6 = load ptr, ptr %2, align 8
  %7 = call noundef zeroext i1 @_ZN5clang25OpenACCVectorLengthClause7classofEPKNS_13OpenACCClauseE(ptr noundef %6)
  br i1 %7, label %11, label %8

8:                                                ; preds = %5
  %9 = load ptr, ptr %2, align 8
  %10 = call noundef zeroext i1 @_ZN5clang18OpenACCAsyncClause7classofEPKNS_13OpenACCClauseE(ptr noundef %9)
  br label %11

11:                                               ; preds = %8, %5, %1
  %12 = phi i1 [ true, %5 ], [ true, %1 ], [ %10, %8 ]
  ret i1 %12
}

; Function Attrs: mustprogress nounwind uwtable
define linkonce_odr hidden noundef zeroext i1 @_ZN5clang21OpenACCNumGangsClause7classofEPKNS_13OpenACCClauseE(ptr noundef %0) #0 comdat align 2 {
  %2 = alloca ptr, align 8
  store ptr %0, ptr %2, align 8
  %3 = load ptr, ptr %2, align 8
  %4 = call noundef i32 @_ZNK5clang13OpenACCClause13getClauseKindEv(ptr noundef nonnull align 8 dereferenceable(20) %3)
  %5 = icmp eq i32 %4, 40
  ret i1 %5
}

; Function Attrs: mustprogress nounwind uwtable
define linkonce_odr hidden noundef zeroext i1 @_ZN5clang17OpenACCWaitClause7classofEPKNS_13OpenACCClauseE(ptr noundef %0) #0 comdat align 2 {
  %2 = alloca ptr, align 8
  store ptr %0, ptr %2, align 8
  %3 = load ptr, ptr %2, align 8
  %4 = call noundef i32 @_ZNK5clang13OpenACCClause13getClauseKindEv(ptr noundef nonnull align 8 dereferenceable(20) %3)
  %5 = icmp eq i32 %4, 49
  ret i1 %5
}

; Function Attrs: mustprogress nounwind uwtable
define linkonce_odr hidden noundef zeroext i1 @_ZN5clang17OpenACCSelfClause7classofEPKNS_13OpenACCClauseE(ptr noundef %0) #0 comdat align 2 {
  %2 = alloca ptr, align 8
  store ptr %0, ptr %2, align 8
  %3 = load ptr, ptr %2, align 8
  %4 = call noundef i32 @_ZNK5clang13OpenACCClause13getClauseKindEv(ptr noundef nonnull align 8 dereferenceable(20) %3)
  %5 = icmp eq i32 %4, 10
  ret i1 %5
}

; Function Attrs: mustprogress nounwind uwtable
define linkonce_odr hidden noundef zeroext i1 @_ZN5clang15OpenACCIfClause7classofEPKNS_13OpenACCClauseE(ptr noundef %0) #0 comdat align 2 {
  %2 = alloca ptr, align 8
  store ptr %0, ptr %2, align 8
  %3 = load ptr, ptr %2, align 8
  %4 = call noundef i32 @_ZNK5clang13OpenACCClause13getClauseKindEv(ptr noundef nonnull align 8 dereferenceable(20) %3)
  %5 = icmp eq i32 %4, 9
  ret i1 %5
}

; Function Attrs: mustprogress nounwind uwtable
define linkonce_odr hidden noundef i32 @_ZNK5clang13OpenACCClause13getClauseKindEv(ptr noundef nonnull align 8 dereferenceable(20) %0) #0 comdat align 2 {
  %2 = alloca ptr, align 8
  store ptr %0, ptr %2, align 8
  %3 = load ptr, ptr %2, align 8
  %4 = getelementptr inbounds nuw %"class.clang::OpenACCClause", ptr %3, i32 0, i32 1
  %5 = load i32, ptr %4, align 8
  ret i32 %5
}

; Function Attrs: mustprogress nounwind uwtable
define dso_local noundef zeroext i1 @_ZN5clang22OpenACCClauseWithExprs7classofEPKNS_13OpenACCClauseE(ptr noundef %0) #0 align 2 {
  %2 = alloca ptr, align 8
  store ptr %0, ptr %2, align 8
  %3 = load ptr, ptr %2, align 8
  %4 = call noundef zeroext i1 @_ZN5clang17OpenACCWaitClause7classofEPKNS_13OpenACCClauseE(ptr noundef %3)
  br i1 %4, label %14, label %5

5:                                                ; preds = %1
  %6 = load ptr, ptr %2, align 8
  %7 = call noundef zeroext i1 @_ZN5clang21OpenACCNumGangsClause7classofEPKNS_13OpenACCClauseE(ptr noundef %6)
  br i1 %7, label %14, label %8

8:                                                ; preds = %5
  %9 = load ptr, ptr %2, align 8
  %10 = call noundef zeroext i1 @_ZN5clang30OpenACCClauseWithSingleIntExpr7classofEPKNS_13OpenACCClauseE(ptr noundef %9)
  br i1 %10, label %14, label %11

11:                                               ; preds = %8
  %12 = load ptr, ptr %2, align 8
  %13 = call noundef zeroext i1 @_ZN5clang24OpenACCClauseWithVarList7classofEPKNS_13OpenACCClauseE(ptr noundef %12)
  br label %14

14:                                               ; preds = %11, %8, %5, %1
  %15 = phi i1 [ true, %8 ], [ true, %5 ], [ true, %1 ], [ %13, %11 ]
  ret i1 %15
}

; Function Attrs: mustprogress nounwind uwtable
define dso_local noundef zeroext i1 @_ZN5clang26OpenACCClauseWithCondition7classofEPKNS_13OpenACCClauseE(ptr noundef %0) #0 align 2 {
  %2 = alloca ptr, align 8
  store ptr %0, ptr %2, align 8
  %3 = load ptr, ptr %2, align 8
  %4 = call noundef zeroext i1 @_ZN5clang15OpenACCIfClause7classofEPKNS_13OpenACCClauseE(ptr noundef %3)
  br i1 %4, label %8, label %5

5:                                                ; preds = %1
  %6 = load ptr, ptr %2, align 8
  %7 = call noundef zeroext i1 @_ZN5clang17OpenACCSelfClause7classofEPKNS_13OpenACCClauseE(ptr noundef %6)
  br label %8

8:                                                ; preds = %5, %1
  %9 = phi i1 [ true, %1 ], [ %7, %5 ]
  ret i1 %9
}

; Function Attrs: mustprogress nounwind uwtable
define linkonce_odr hidden noundef zeroext i1 @_ZN5clang23OpenACCDeviceTypeClause7classofEPKNS_13OpenACCClauseE(ptr noundef %0) #0 comdat align 2 {
  %2 = alloca ptr, align 8
  store ptr %0, ptr %2, align 8
  %3 = load ptr, ptr %2, align 8
  %4 = call noundef i32 @_ZNK5clang13OpenACCClause13getClauseKindEv(ptr noundef nonnull align 8 dereferenceable(20) %3)
  %5 = icmp eq i32 %4, 45
  br i1 %5, label %10, label %6

6:                                                ; preds = %1
  %7 = load ptr, ptr %2, align 8
  %8 = call noundef i32 @_ZNK5clang13OpenACCClause13getClauseKindEv(ptr noundef nonnull align 8 dereferenceable(20) %7)
  %9 = icmp eq i32 %8, 44
  br label %10

10:                                               ; preds = %6, %1
  %11 = phi i1 [ true, %1 ], [ %9, %6 ]
  ret i1 %11
}

; Function Attrs: mustprogress nounwind uwtable
define dso_local noundef zeroext i1 @_ZN5clang23OpenACCClauseWithParams7classofEPKNS_13OpenACCClauseE(ptr noundef %0) #0 align 2 {
  %2 = alloca ptr, align 8
  store ptr %0, ptr %2, align 8
  %3 = load ptr, ptr %2, align 8
  %4 = call noundef zeroext i1 @_ZN5clang23OpenACCDeviceTypeClause7classofEPKNS_13OpenACCClauseE(ptr noundef %3)
  br i1 %4, label %11, label %5

5:                                                ; preds = %1
  %6 = load ptr, ptr %2, align 8
  %7 = call noundef zeroext i1 @_ZN5clang26OpenACCClauseWithCondition7classofEPKNS_13OpenACCClauseE(ptr noundef %6)
  br i1 %7, label %11, label %8

8:                                                ; preds = %5
  %9 = load ptr, ptr %2, align 8
  %10 = call noundef zeroext i1 @_ZN5clang22OpenACCClauseWithExprs7classofEPKNS_13OpenACCClauseE(ptr noundef %9)
  br label %11

11:                                               ; preds = %8, %5, %1
  %12 = phi i1 [ true, %5 ], [ true, %1 ], [ %10, %8 ]
  ret i1 %12
}