; Function Attrs: mustprogress nofree norecurse nosync nounwind willreturn memory(argmem: read) uwtable
define dso_local noundef zeroext i1 @_ZN5clang23OpenACCClauseWithParams7classofEPKNS_13OpenACCClauseE(ptr noundef readonly captures(none) %0) local_unnamed_addr #0 align 2 {
  %2 = getelementptr inbounds nuw i8, ptr %0, i64 8
  %3 = load i32, ptr %2, align 8
  %switch.tableidx = add i32 %3, -9
  %4 = icmp ult i32 %switch.tableidx, 41
  br i1 %4, label %switch.hole_check, label %5

5:                                                ; preds = %switch.hole_check, %1
  %.off.i16.i.i = add i32 %3, -33
  %switch.i17.i.i = icmp ult i32 %.off.i16.i.i, 3
  br label %_ZN5clang22OpenACCClauseWithExprs7classofEPKNS_13OpenACCClauseE.exit

switch.hole_check:                                ; preds = %1
  %switch.maskindex = zext nneg i32 %switch.tableidx to i64
  %switch.shifted = lshr i64 1347696956511, %switch.maskindex
  %switch.lobit = trunc i64 %switch.shifted to i1
  br i1 %switch.lobit, label %_ZN5clang22OpenACCClauseWithExprs7classofEPKNS_13OpenACCClauseE.exit, label %5

_ZN5clang22OpenACCClauseWithExprs7classofEPKNS_13OpenACCClauseE.exit: ; preds = %switch.hole_check, %5
  %6 = phi i1 [ %switch.i17.i.i, %5 ], [ true, %switch.hole_check ]
  ret i1 %6
}